(dp0
I2010003240
(dp1
I162
F21.24453087019932
sI165
F6.417112299465241
sI70
F12.348079727758872
sI9
F10.889645114244045
sI74
F3.3543996110841032
sI171
F8.896451142440446
sI174
F0.9722897423432183
sI80
F24.06417112299465
sI81
F10.06319883325231
sI83
F1.750121536217793
ssI2010002704
(dp2
I162
F11.720779220779221
sI75
F2.4025974025974026
sI165
F13.376623376623375
sI70
F6.103896103896104
sI74
F9.35064935064935
sI171
F9.285714285714286
sI174
F1.2987012987012987
sI80
F36.81818181818181
sI81
F8.928571428571429
sI155
F0.7142857142857143
ssI2010002920
(dp3
I162
F14.68131868131868
sI165
F10.593406593406593
sI70
F8.87912087912088
sI74
F5.450549450549451
sI171
F5.4945054945054945
sI174
F1.4065934065934065
sI80
F32.175824175824175
sI81
F11.296703296703296
sI83
F2.3736263736263736
sI69
F7.648351648351648
ssI2010001271
(dp4
I162
F7.072072072072072
sI75
F1.6666666666666667
sI165
F18.423423423423422
sI70
F3.783783783783784
sI167
F3.6036036036036037
sI74
F8.82882882882883
sI171
F7.3873873873873865
sI80
F29.72972972972973
sI81
F12.117117117117116
sI69
F7.3873873873873865
ssI2010007770
(dp5
I162
F24.209532798489857
sI165
F7.6923076923076925
sI70
F7.26757904672015
sI9
F16.658801321378007
sI74
F4.436054742803209
sI171
F7.4091552619159975
sI80
F19.395941481831052
sI81
F9.76875884851345
sI153
F0.5191127890514393
sI69
F2.642756016989146
ssI2010007579
(dp6
I162
F11.777777777777777
sI165
F11.422222222222222
sI70
F4.666666666666667
sI167
F3.5111111111111115
sI9
F17.28888888888889
sI74
F9.777777777777779
sI171
F4.7555555555555555
sI174
F1.2444444444444445
sI80
F25.377777777777776
sI81
F10.177777777777777
ssI2010007519
(dp7
I162
F23.39640055376096
sI165
F6.96815874480849
sI70
F14.074757729580064
sI74
F5.676049838486387
sI171
F4.8454083987078915
sI174
F1.338255652976465
sI80
F27.503461005999075
sI81
F10.844485463774804
sI83
F2.9072450392247347
sI153
F2.445777572681126
ss.